target datalayout = "e-m:e-p270:32:32-p271:32:32-p272:64:64-i64:64-i128:128-f80:128-n8:16:32:64-S128"
target triple = "x86_64-pc-linux-gnu"

%struct.print_stream_ops = type { ptr, ptr, ptr, ptr, ptr, ptr, ptr }
%struct.print_stream = type { ptr, ptr }
%struct.output_text = type { i8, ptr, i8, ptr, i32 }

@.str.1 = private unnamed_addr constant [10 x i8] c"COLORTERM\00", align 1
@.str.2 = private unnamed_addr constant [10 x i8] c"truecolor\00", align 1
@.str.3 = private unnamed_addr constant [6 x i8] c"24bit\00", align 1
@print_text_ops = internal constant %struct.print_stream_ops { ptr null, ptr @print_line_text, ptr @print_line_color_text, ptr null, ptr @new_page_text, ptr null, ptr @destroy_text }, align 8

; Function Attrs: null_pointer_is_valid sspstrong uwtable
define internal ptr @print_stream_text_alloc(i1 noundef zeroext %0, ptr noundef %1) #0 {
  %3 = alloca i8, align 1
  %4 = alloca ptr, align 8
  %5 = alloca ptr, align 8
  %6 = alloca ptr, align 8
  %7 = alloca ptr, align 8
  %8 = alloca i8, align 1
  %9 = alloca ptr, align 8
  %10 = alloca i64, align 8
  %11 = alloca i64, align 8
  %12 = alloca ptr, align 8
  %13 = alloca ptr, align 8
  %14 = zext i1 %0 to i8
  store i8 %14, ptr %3, align 1
  store ptr %1, ptr %4, align 8
  call void @llvm.lifetime.start.p0(i64 8, ptr %5) #11
  call void @llvm.lifetime.start.p0(i64 8, ptr %6) #11
  %15 = call noalias ptr @g_malloc(i64 noundef 40) #12
  store ptr %15, ptr %6, align 8
  %16 = load i8, ptr %3, align 1, !range !6, !noundef !7
  %17 = trunc i8 %16 to i1
  %18 = load ptr, ptr %6, align 8
  %19 = getelementptr inbounds nuw %struct.output_text, ptr %18, i32 0, i32 0
  %20 = zext i1 %17 to i8
  store i8 %20, ptr %19, align 8
  %21 = load ptr, ptr %4, align 8
  %22 = load ptr, ptr %6, align 8
  %23 = getelementptr inbounds nuw %struct.output_text, ptr %22, i32 0, i32 1
  store ptr %21, ptr %23, align 8
  %24 = load ptr, ptr %4, align 8
  %25 = call i32 @fileno(ptr noundef %24) #11
  %26 = call i32 @isatty(i32 noundef %25) #11
  %27 = icmp ne i32 %26, 0
  %28 = load ptr, ptr %6, align 8
  %29 = getelementptr inbounds nuw %struct.output_text, ptr %28, i32 0, i32 2
  %30 = zext i1 %27 to i8
  store i8 %30, ptr %29, align 8
  %31 = load ptr, ptr %6, align 8
  %32 = getelementptr inbounds nuw %struct.output_text, ptr %31, i32 0, i32 2
  %33 = load i8, ptr %32, align 8, !range !6, !noundef !7
  %34 = trunc i8 %33 to i1
  br i1 %34, label %35, label %67

35:                                               ; preds = %2
  call void @llvm.lifetime.start.p0(i64 8, ptr %7) #11
  call void @llvm.lifetime.start.p0(i64 1, ptr %8) #11
  %36 = call i32 @g_get_charset(ptr noundef %7)
  %37 = icmp ne i32 %36, 0
  %38 = zext i1 %37 to i8
  store i8 %38, ptr %8, align 1
  %39 = load i8, ptr %8, align 1, !range !6, !noundef !7
  %40 = trunc i8 %39 to i1
  br i1 %40, label %45, label %41

41:                                               ; preds = %35
  %42 = load ptr, ptr %7, align 8
  %43 = load ptr, ptr %6, align 8
  %44 = getelementptr inbounds nuw %struct.output_text, ptr %43, i32 0, i32 3
  store ptr %42, ptr %44, align 8
  br label %48

45:                                               ; preds = %35
  %46 = load ptr, ptr %6, align 8
  %47 = getelementptr inbounds nuw %struct.output_text, ptr %46, i32 0, i32 3
  store ptr null, ptr %47, align 8
  br label %48

48:                                               ; preds = %45, %41
  call void @llvm.lifetime.start.p0(i64 8, ptr %9) #11
  %49 = call ptr @getenv(ptr noundef @.str.1) #11
  store ptr %49, ptr %9, align 8
  %50 = load ptr, ptr %9, align 8
  %51 = icmp ne ptr %50, null
  br i1 %51, label %52, label %63

52:                                               ; preds = %48
  %53 = load ptr, ptr %9, align 8
  %54 = call i32 @strcmp(ptr noundef %53, ptr noundef @.str.2) #13
  %55 = icmp eq i32 %54, 0
  br i1 %55, label %60, label %56

56:                                               ; preds = %52
  %57 = load ptr, ptr %9, align 8
  %58 = call i32 @strcmp(ptr noundef %57, ptr noundef @.str.3) #13
  %59 = icmp eq i32 %58, 0
  br i1 %59, label %60, label %63

60:                                               ; preds = %56, %52
  %61 = load ptr, ptr %6, align 8
  %62 = getelementptr inbounds nuw %struct.output_text, ptr %61, i32 0, i32 4
  store i32 1, ptr %62, align 8
  br label %66

63:                                               ; preds = %56, %48
  %64 = load ptr, ptr %6, align 8
  %65 = getelementptr inbounds nuw %struct.output_text, ptr %64, i32 0, i32 4
  store i32 0, ptr %65, align 8
  br label %66

66:                                               ; preds = %63, %60
  call void @llvm.lifetime.end.p0(i64 8, ptr %9) #11
  call void @llvm.lifetime.end.p0(i64 1, ptr %8) #11
  call void @llvm.lifetime.end.p0(i64 8, ptr %7) #11
  br label %67

67:                                               ; preds = %66, %2
  %68 = load ptr, ptr %6, align 8
  %69 = getelementptr inbounds nuw %struct.output_text, ptr %68, i32 0, i32 2
  %70 = load i8, ptr %69, align 8, !range !6, !noundef !7
  %71 = trunc i8 %70 to i1
  br i1 %71, label %77, label %72

72:                                               ; preds = %67
  %73 = load ptr, ptr %6, align 8
  %74 = getelementptr inbounds nuw %struct.output_text, ptr %73, i32 0, i32 3
  store ptr null, ptr %74, align 8
  %75 = load ptr, ptr %6, align 8
  %76 = getelementptr inbounds nuw %struct.output_text, ptr %75, i32 0, i32 4
  store i32 0, ptr %76, align 8
  br label %77

77:                                               ; preds = %72, %67
  call void @llvm.lifetime.start.p0(i64 8, ptr %10) #11
  store i64 1, ptr %10, align 8
  call void @llvm.lifetime.start.p0(i64 8, ptr %11) #11
  store i64 16, ptr %11, align 8
  call void @llvm.lifetime.start.p0(i64 8, ptr %12) #11
  %78 = load i64, ptr %11, align 8
  %79 = icmp eq i64 %78, 1
  br i1 %79, label %80, label %83

80:                                               ; preds = %77
  %81 = load i64, ptr %10, align 8
  %82 = call noalias ptr @g_malloc(i64 noundef %81) #12
  store ptr %82, ptr %12, align 8
  br label %104

83:                                               ; preds = %77
  %84 = load i64, ptr %10, align 8
  %85 = call i1 @llvm.is.constant.i64(i64 %84)
  br i1 %85, label %86, label %99

86:                                               ; preds = %83
  %87 = load i64, ptr %11, align 8
  %88 = icmp eq i64 %87, 0
  br i1 %88, label %94, label %89

89:                                               ; preds = %86
  %90 = load i64, ptr %10, align 8
  %91 = load i64, ptr %11, align 8
  %92 = udiv i64 -1, %91
  %93 = icmp ule i64 %90, %92
  br i1 %93, label %94, label %99

94:                                               ; preds = %89, %86
  %95 = load i64, ptr %10, align 8
  %96 = load i64, ptr %11, align 8
  %97 = mul i64 %95, %96
  %98 = call noalias ptr @g_malloc(i64 noundef %97) #12
  store ptr %98, ptr %12, align 8
  br label %103

99:                                               ; preds = %89, %83
  %100 = load i64, ptr %10, align 8
  %101 = load i64, ptr %11, align 8
  %102 = call noalias ptr @g_malloc_n(i64 noundef %100, i64 noundef %101) #14
  store ptr %102, ptr %12, align 8
  br label %103

103:                                              ; preds = %99, %94
  br label %104

104:                                              ; preds = %103, %80
  %105 = load ptr, ptr %12, align 8
  store ptr %105, ptr %13, align 8
  call void @llvm.lifetime.end.p0(i64 8, ptr %12) #11
  call void @llvm.lifetime.end.p0(i64 8, ptr %11) #11
  call void @llvm.lifetime.end.p0(i64 8, ptr %10) #11
  %106 = load ptr, ptr %13, align 8
  store ptr %106, ptr %5, align 8
  %107 = load ptr, ptr %5, align 8
  %108 = getelementptr inbounds nuw %struct.print_stream, ptr %107, i32 0, i32 0
  store ptr @print_text_ops, ptr %108, align 8
  %109 = load ptr, ptr %6, align 8
  %110 = load ptr, ptr %5, align 8
  %111 = getelementptr inbounds nuw %struct.print_stream, ptr %110, i32 0, i32 1
  store ptr %109, ptr %111, align 8
  %112 = load ptr, ptr %5, align 8
  call void @llvm.lifetime.end.p0(i64 8, ptr %6) #11
  call void @llvm.lifetime.end.p0(i64 8, ptr %5) #11
  ret ptr %112
}