; Function Attrs: null_pointer_is_valid sspstrong uwtable
define internal fastcc noalias noundef ptr @print_stream_text_alloc(i1 noundef zeroext %0, ptr noundef %1) unnamed_addr #0 {
  %3 = alloca ptr, align 8
  %4 = zext i1 %0 to i8
  %5 = tail call noalias dereferenceable_or_null(40) ptr @g_malloc(i64 noundef 40) #12
  store i8 %4, ptr %5, align 8
  %6 = getelementptr inbounds nuw i8, ptr %5, i64 8
  store ptr %1, ptr %6, align 8
  %7 = tail call i32 @fileno(ptr noundef %1) #13
  %8 = tail call i32 @isatty(i32 noundef %7) #13
  %9 = icmp ne i32 %8, 0
  %10 = getelementptr inbounds nuw i8, ptr %5, i64 16
  %11 = zext i1 %9 to i8
  store i8 %11, ptr %10, align 8
  br i1 %9, label %12, label %25

12:                                               ; preds = %2
  call void @llvm.lifetime.start.p0(i64 8, ptr nonnull %3) #13
  %13 = call i32 @g_get_charset(ptr noundef nonnull %3)
  %.not = icmp eq i32 %13, 0
  %14 = load ptr, ptr %3, align 8
  %spec.select = select i1 %.not, ptr %14, ptr null
  %15 = getelementptr inbounds nuw i8, ptr %5, i64 24
  store ptr %spec.select, ptr %15, align 8
  %16 = call ptr @getenv(ptr noundef nonnull @.str.1) #13
  %.not34 = icmp eq ptr %16, null
  br i1 %.not34, label %23, label %17

17:                                               ; preds = %12
  %18 = call i32 @strcmp(ptr noundef nonnull dereferenceable(1) %16, ptr noundef nonnull dereferenceable(10) @.str.2) #14
  %19 = icmp eq i32 %18, 0
  br i1 %19, label %.thread, label %20

20:                                               ; preds = %17
  %21 = call i32 @strcmp(ptr noundef nonnull dereferenceable(1) %16, ptr noundef nonnull dereferenceable(6) @.str.3) #14
  %22 = icmp eq i32 %21, 0
  br i1 %22, label %.thread, label %23

23:                                               ; preds = %20, %12
  br label %.thread

.thread:                                          ; preds = %17, %20, %23
  %.sink = phi i32 [ 0, %23 ], [ 1, %20 ], [ 1, %17 ]
  %24 = getelementptr inbounds nuw i8, ptr %5, i64 32
  store i32 %.sink, ptr %24, align 8
  call void @llvm.lifetime.end.p0(i64 8, ptr nonnull %3) #13
  br label %28

25:                                               ; preds = %2
  %26 = getelementptr inbounds nuw i8, ptr %5, i64 24
  store ptr null, ptr %26, align 8
  %27 = getelementptr inbounds nuw i8, ptr %5, i64 32
  store i32 0, ptr %27, align 8
  br label %28

28:                                               ; preds = %.thread, %25
  %29 = call noalias dereferenceable_or_null(16) ptr @g_malloc(i64 noundef 16) #12
  store ptr @print_text_ops, ptr %29, align 8
  %30 = getelementptr inbounds nuw i8, ptr %29, i64 8
  store ptr %5, ptr %30, align 8
  ret ptr %29
}